target datalayout = "e-m:e-p270:32:32-p271:32:32-p272:64:64-i64:64-i128:128-f80:128-n8:16:32:64-S128"
target triple = "x86_64-pc-linux-gnu"

%struct.dbus_packet_t = type { ptr, ptr, i32, i32, i8, i32, i32, ptr, ptr, ptr, ptr, ptr, i32, ptr, ptr, ptr, i32 }
%struct._packet_info = type { ptr, ptr, i32, i32, %struct.nstime_t, %struct.nstime_t, %struct.nstime_t, i8, ptr, ptr, ptr, ptr, %struct._address, %struct._address, %struct._address, %struct._address, %struct._address, %struct._address, i32, ptr, i8, [3 x i8], %struct.anon, i32, i32, i32, i32, ptr, i8, ptr, ptr, i16, i16, i32, i32, i16, i32, i32, ptr, ptr, ptr, i8, i8, i16, i16, i16, i32, i16, i16, ptr, ptr, ptr, ptr, ptr, i32, i32 }
%struct.nstime_t = type { i64, i32 }
%struct._address = type { i32, i32, ptr, ptr }
%struct.anon = type { i8, [3 x i8] }

; Function Attrs: null_pointer_is_valid sspstrong uwtable
define internal ptr @add_dbus_string(ptr noundef %0, i32 noundef %1, i32 noundef %2) #0 {
  %4 = alloca ptr, align 8
  %5 = alloca ptr, align 8
  %6 = alloca i32, align 4
  %7 = alloca i32, align 4
  %8 = alloca ptr, align 8
  %9 = alloca i32, align 4
  %10 = alloca ptr, align 8
  %11 = alloca i32, align 4
  %12 = alloca i8, align 1
  %13 = alloca i32, align 4
  store ptr %0, ptr %5, align 8
  store i32 %1, ptr %6, align 4
  store i32 %2, ptr %7, align 4
  call void @llvm.lifetime.start.p0(i64 8, ptr %8) #11
  call void @llvm.lifetime.start.p0(i64 4, ptr %9) #11
  %14 = load ptr, ptr %5, align 8
  %15 = getelementptr inbounds nuw %struct.dbus_packet_t, ptr %14, i32 0, i32 0
  %16 = load ptr, ptr %15, align 8
  %17 = call i32 @ptvcursor_current_offset(ptr noundef %16)
  store i32 %17, ptr %9, align 4
  call void @llvm.lifetime.start.p0(i64 8, ptr %10) #11
  %18 = load ptr, ptr %5, align 8
  %19 = getelementptr inbounds nuw %struct.dbus_packet_t, ptr %18, i32 0, i32 0
  %20 = load ptr, ptr %19, align 8
  %21 = load i32, ptr %6, align 4
  %22 = load i32, ptr %7, align 4
  %23 = load ptr, ptr %5, align 8
  %24 = getelementptr inbounds nuw %struct.dbus_packet_t, ptr %23, i32 0, i32 2
  %25 = load i32, ptr %24, align 8
  %26 = or i32 %25, 2
  %27 = load ptr, ptr %5, align 8
  %28 = getelementptr inbounds nuw %struct.dbus_packet_t, ptr %27, i32 0, i32 1
  %29 = load ptr, ptr %28, align 8
  %30 = getelementptr inbounds nuw %struct._packet_info, ptr %29, i32 0, i32 51
  %31 = load ptr, ptr %30, align 8
  %32 = call ptr @ptvcursor_add_ret_string(ptr noundef %20, i32 noundef %21, i32 noundef %22, i32 noundef %26, ptr noundef %31, ptr noundef %8)
  store ptr %32, ptr %10, align 8
  call void @llvm.lifetime.start.p0(i64 4, ptr %11) #11
  %33 = load ptr, ptr %5, align 8
  %34 = getelementptr inbounds nuw %struct.dbus_packet_t, ptr %33, i32 0, i32 0
  %35 = load ptr, ptr %34, align 8
  %36 = call i32 @ptvcursor_current_offset(ptr noundef %35)
  %37 = load i32, ptr %9, align 4
  %38 = sub i32 %36, %37
  store i32 %38, ptr %11, align 4
  call void @llvm.lifetime.start.p0(i64 1, ptr %12) #11
  %39 = load ptr, ptr %5, align 8
  %40 = getelementptr inbounds nuw %struct.dbus_packet_t, ptr %39, i32 0, i32 0
  %41 = load ptr, ptr %40, align 8
  %42 = call ptr @ptvcursor_tvbuff(ptr noundef %41)
  %43 = load ptr, ptr %5, align 8
  %44 = getelementptr inbounds nuw %struct.dbus_packet_t, ptr %43, i32 0, i32 0
  %45 = load ptr, ptr %44, align 8
  %46 = call i32 @ptvcursor_current_offset(ptr noundef %45)
  %47 = call zeroext i8 @tvb_get_uint8(ptr noundef %42, i32 noundef %46)
  store i8 %47, ptr %12, align 1
  %48 = load ptr, ptr %10, align 8
  %49 = load i32, ptr %11, align 4
  %50 = add i32 %49, 1
  call void @proto_item_set_len(ptr noundef %48, i32 noundef %50)
  %51 = load ptr, ptr %5, align 8
  %52 = getelementptr inbounds nuw %struct.dbus_packet_t, ptr %51, i32 0, i32 0
  %53 = load ptr, ptr %52, align 8
  call void @ptvcursor_advance(ptr noundef %53, i32 noundef 1)
  %54 = load ptr, ptr %10, align 8
  %55 = load ptr, ptr %5, align 8
  %56 = getelementptr inbounds nuw %struct.dbus_packet_t, ptr %55, i32 0, i32 7
  store ptr %54, ptr %56, align 8
  %57 = load ptr, ptr %8, align 8
  %58 = call i64 @strlen(ptr noundef %57) #12
  %59 = load i32, ptr %11, align 4
  %60 = load i32, ptr %7, align 4
  %61 = sub i32 %59, %60
  %62 = sext i32 %61 to i64
  %63 = icmp ne i64 %58, %62
  br i1 %63, label %68, label %64

64:                                               ; preds = %3
  %65 = load i8, ptr %12, align 1
  %66 = zext i8 %65 to i32
  %67 = icmp ne i32 %66, 0
  br i1 %67, label %68, label %69

68:                                               ; preds = %64, %3
  store ptr null, ptr %4, align 8
  store i32 1, ptr %13, align 4
  br label %71

69:                                               ; preds = %64
  %70 = load ptr, ptr %8, align 8
  store ptr %70, ptr %4, align 8
  store i32 1, ptr %13, align 4
  br label %71

71:                                               ; preds = %69, %68
  call void @llvm.lifetime.end.p0(i64 1, ptr %12) #11
  call void @llvm.lifetime.end.p0(i64 4, ptr %11) #11
  call void @llvm.lifetime.end.p0(i64 8, ptr %10) #11
  call void @llvm.lifetime.end.p0(i64 4, ptr %9) #11
  call void @llvm.lifetime.end.p0(i64 8, ptr %8) #11
  %72 = load ptr, ptr %4, align 8
  ret ptr %72
}