; Function Attrs: null_pointer_is_valid sspstrong uwtable
define internal fastcc ptr @add_dbus_string(ptr noundef captures(none) initializes((40, 48)) %0, i32 noundef %1, i32 noundef range(i32 1, 5) %2) unnamed_addr #0 {
  %4 = alloca ptr, align 8
  call void @llvm.lifetime.start.p0(i64 8, ptr nonnull %4) #10
  %5 = load ptr, ptr %0, align 8
  %6 = tail call i32 @ptvcursor_current_offset(ptr noundef %5)
  %7 = load ptr, ptr %0, align 8
  %8 = getelementptr inbounds nuw i8, ptr %0, i64 16
  %9 = load i32, ptr %8, align 8
  %10 = or i32 %9, 2
  %11 = getelementptr inbounds nuw i8, ptr %0, i64 8
  %12 = load ptr, ptr %11, align 8
  %13 = getelementptr inbounds nuw i8, ptr %12, i64 408
  %14 = load ptr, ptr %13, align 8
  %15 = call ptr @ptvcursor_add_ret_string(ptr noundef %7, i32 noundef %1, i32 noundef %2, i32 noundef %10, ptr noundef %14, ptr noundef nonnull %4)
  %16 = load ptr, ptr %0, align 8
  %17 = call i32 @ptvcursor_current_offset(ptr noundef %16)
  %18 = sub i32 %17, %6
  %19 = load ptr, ptr %0, align 8
  %20 = call ptr @ptvcursor_tvbuff(ptr noundef %19)
  %21 = load ptr, ptr %0, align 8
  %22 = call i32 @ptvcursor_current_offset(ptr noundef %21)
  %23 = call zeroext i8 @tvb_get_uint8(ptr noundef %20, i32 noundef %22)
  %24 = add i32 %18, 1
  call void @proto_item_set_len(ptr noundef %15, i32 noundef %24)
  %25 = load ptr, ptr %0, align 8
  call void @ptvcursor_advance(ptr noundef %25, i32 noundef 1)
  %26 = getelementptr inbounds nuw i8, ptr %0, i64 40
  store ptr %15, ptr %26, align 8
  %27 = load ptr, ptr %4, align 8
  %28 = call i64 @strlen(ptr noundef %27) #12
  %29 = sub i32 %18, %2
  %30 = sext i32 %29 to i64
  %31 = icmp ne i64 %28, %30
  %32 = icmp ne i8 %23, 0
  %or.cond = select i1 %31, i1 true, i1 %32
  %. = select i1 %or.cond, ptr null, ptr %27
  call void @llvm.lifetime.end.p0(i64 8, ptr nonnull %4) #10
  ret ptr %.
}